Certificate:
    Data:
        Version: 3 (0x2)
        Serial Number: 1 (0x1)
        Signature Algorithm: sha1WithRSAEncryption
        Issuer: C=BA, ST=RS, O=Elektrotehnicki fakultet, OU=ETF, CN=CA2/emailAddress=ca2@mail.com
        Validity
            Not Before: Feb  8 07:14:20 2022 GMT
            Not After : Feb  8 07:14:20 2023 GMT
        Subject: C=BA, ST=RS, O=Elektrotehnicki fakultet, OU=ETF, CN=nina/emailAddress=nina@mail.com
        Subject Public Key Info:
            Public Key Algorithm: rsaEncryption
                Public-Key: (2048 bit)
                Modulus:
                    00:dd:96:9a:61:66:e3:01:f1:66:f6:26:16:12:e8:
                    4c:7b:f9:69:2e:33:51:0a:c6:f7:28:15:8e:f1:56:
                    6a:79:e1:e1:6f:49:95:96:06:43:68:4e:84:2b:bb:
                    46:bf:4b:b2:09:69:40:84:33:1e:e6:e5:04:e2:68:
                    c4:74:94:2a:c7:22:5e:42:ef:66:d6:f0:b4:65:d0:
                    42:13:9b:cb:95:32:d3:58:70:be:b2:77:55:39:d2:
                    b0:15:df:18:1d:52:60:7e:a1:6d:29:06:63:31:66:
                    1b:65:63:39:73:95:dc:7c:f6:91:b7:1a:b5:18:64:
                    ac:0f:e7:ad:30:75:35:74:84:e2:3c:9d:76:9d:80:
                    d4:f7:5e:ef:71:ab:6b:6b:81:62:26:68:63:3c:fa:
                    7e:b0:72:85:52:69:71:14:a5:a5:f4:f7:83:5f:41:
                    7c:61:d3:d1:31:ce:60:32:8e:e7:24:f1:42:2c:e6:
                    00:15:0b:ae:28:08:e6:1e:66:0b:84:d8:3e:fa:33:
                    22:5c:b0:c3:87:4a:32:ce:e6:7a:b8:90:a5:d9:4e:
                    de:99:8f:fc:75:c5:d7:ee:06:12:b6:b4:f1:34:3e:
                    a1:b5:65:25:b9:d2:4e:0e:de:57:33:db:ce:05:f5:
                    5f:d4:d8:02:05:27:bc:38:8a:94:77:2c:54:f0:17:
                    9c:69
                Exponent: 65537 (0x10001)
        X509v3 extensions:
            X509v3 Basic Constraints: 
                CA:FALSE
            X509v3 Key Usage: 
                Digital Signature, Non Repudiation, Key Encipherment
            X509v3 Extended Key Usage: 
                TLS Web Client Authentication
            Netscape Comment: 
                OpenSSL Generated Certificate
            X509v3 Subject Key Identifier: 
                00:D0:E0:9E:DC:85:B6:22:8C:91:72:B8:72:D9:91:53:6E:F3:57:9A
            X509v3 Authority Key Identifier: 
                0D:55:C8:B7:C8:68:E2:23:5E:FE:64:22:6D:80:20:AB:56:31:10:EA
            X509v3 CRL Distribution Points: 
                Full Name:
                  URI:http://192.168.21.89/rootcrl.pem
    Signature Algorithm: sha1WithRSAEncryption
    Signature Value:
        4c:ed:77:50:0d:f2:1a:5e:06:c6:1d:9c:10:fb:04:05:d8:c7:
        b3:e6:5a:4c:56:ba:d2:5a:18:aa:0b:59:3f:dd:39:41:54:70:
        2d:32:ab:25:ca:12:66:30:70:e4:04:7c:cf:e6:99:85:76:d1:
        ce:4a:6b:bc:f4:41:9d:bd:83:f9:d4:95:c1:67:74:8b:5b:ed:
        ff:c8:ed:60:10:e9:59:b5:a5:85:c1:51:53:f5:4d:7b:8f:7f:
        a8:8f:08:c5:8c:9a:6b:b0:f3:97:4b:2b:f5:af:ff:fd:6a:ec:
        70:e2:d4:c2:d9:16:ce:d5:e1:80:81:09:16:ea:bc:08:cb:7a:
        35:7e:a8:03:37:e5:6a:d1:d4:b6:4e:ec:00:79:bb:e1:ff:ac:
        5a:37:33:0c:36:bd:52:e6:5e:0e:ce:87:cc:d2:0d:be:d1:78:
        43:ea:12:38:ea:a5:b2:47:ec:06:74:24:76:59:49:51:57:26:
        b7:86:b2:81:30:7a:b6:16:01:6f:00:a5:7d:11:3c:65:1c:84:
        a6:12:a5:4f:36:3a:7a:d4:43:6f:e7:af:fa:5e:50:3a:87:f6:
        b8:b0:b3:34:02:18:2b:cc:ed:45:60:02:f2:dd:d3:43:32:ac:
        12:96:90:5a:ec:9f:fc:bb:31:a1:7b:04:df:a5:25:d0:a8:39:
        b1:6a:ac:41:a9:24:77:12:29:12:3e:ea:d0:f6:01:99:6c:cd:
        6d:df:ed:cd:f9:98:17:a7:e7:f9:7a:59:df:a2:80:69:23:6b:
        0b:f5:f1:b2:4f:27:48:3f:67:6d:6a:90:bf:72:a0:a4:bd:ae:
        e0:97:3c:56:6b:18:58:f0:be:c5:77:2e:63:ec:13:e2:55:53:
        87:c8:28:c3:2b:c9:3f:18:96:c6:02:4c:ba:b4:c7:ac:9d:2f:
        45:09:c7:17:d7:33:3d:13:6f:5f:ef:d3:c4:bf:0f:06:0c:16:
        2f:f6:b1:90:cf:94:14:c6:a0:95:9b:fc:36:49:f7:ea:ab:9e:
        f3:9e:d5:39:b7:80:90:c7:56:7c:34:93:6f:04:11:03:37:b5:
        3d:85:b1:86:df:6c:41:b4:88:4b:ce:32:b1:0a:cc:f4:bc:dc:
        6a:b7:49:eb:e6:ec:c0:15:1f:8a:6f:d9:9c:e6:e1:85:78:e9:
        84:80:37:92:03:ff:38:86:d6:3c:61:37:9b:a3:c0:a7:7b:27:
        0b:2b:0f:a7:66:b4:0d:19:3c:bb:24:10:70:b2:44:ef:e5:9c:
        ad:c2:40:21:f2:47:65:cc:ff:54:29:21:e5:91:21:cf:61:51:
        c6:05:82:28:c1:5e:a2:8f:c4:e3:a0:57:58:88:53:d5:52:5d:
        b7:f0:24:04:c6:84:63:a3
-----BEGIN CERTIFICATE-----
MIIFOzCCAyOgAwIBAgIBATANBgkqhkiG9w0BAQUFADB2MQswCQYDVQQGEwJCQTEL
MAkGA1UECBMCUlMxITAfBgNVBAoTGEVsZWt0cm90ZWhuaWNraSBmYWt1bHRldDEM
MAoGA1UECxMDRVRGMQwwCgYDVQQDEwNDQTIxGzAZBgkqhkiG9w0BCQEWDGNhMkBt
YWlsLmNvbTAeFw0yMjAyMDgwNzE0MjBaFw0yMzAyMDgwNzE0MjBaMHgxCzAJBgNV
BAYTAkJBMQswCQYDVQQIEwJSUzEhMB8GA1UEChMYRWxla3Ryb3RlaG5pY2tpIGZh
a3VsdGV0MQwwCgYDVQQLEwNFVEYxDTALBgNVBAMTBG5pbmExHDAaBgkqhkiG9w0B
CQEWDW5pbmFAbWFpbC5jb20wggEiMA0GCSqGSIb3DQEBAQUAA4IBDwAwggEKAoIB
AQDdlpphZuMB8Wb2JhYS6Ex7+WkuM1EKxvcoFY7xVmp54eFvSZWWBkNoToQru0a/
S7IJaUCEMx7m5QTiaMR0lCrHIl5C72bW8LRl0EITm8uVMtNYcL6yd1U50rAV3xgd
UmB+oW0pBmMxZhtlYzlzldx89pG3GrUYZKwP560wdTV0hOI8nXadgNT3Xu9xq2tr
gWImaGM8+n6wcoVSaXEUpaX094NfQXxh09ExzmAyjuck8UIs5gAVC64oCOYeZguE
2D76MyJcsMOHSjLO5nq4kKXZTt6Zj/x1xdfuBhK2tPE0PqG1ZSW50k4O3lcz284F
9V/U2AIFJ7w4ipR3LFTwF5xpAgMBAAGjgdEwgc4wCQYDVR0TBAIwADALBgNVHQ8E
BAMCBeAwEwYDVR0lBAwwCgYIKwYBBQUHAwIwLAYJYIZIAYb4QgENBB8WHU9wZW5T
U0wgR2VuZXJhdGVkIENlcnRpZmljYXRlMB0GA1UdDgQWBBQA0OCe3IW2IoyRcrhy
2ZFTbvNXmjAfBgNVHSMEGDAWgBQNVci3yGjiI17+ZCJtgCCrVjEQ6jAxBgNVHR8E
KjAoMCagJKAihiBodHRwOi8vMTkyLjE2OC4yMS44OS9yb290Y3JsLnBlbTANBgkq
hkiG9w0BAQUFAAOCAgEATO13UA3yGl4Gxh2cEPsEBdjHs+ZaTFa60loYqgtZP905
QVRwLTKrJcoSZjBw5AR8z+aZhXbRzkprvPRBnb2D+dSVwWd0i1vt/8jtYBDpWbWl
hcFRU/VNe49/qI8IxYyaa7Dzl0sr9a///WrscOLUwtkWztXhgIEJFuq8CMt6NX6o
AzflatHUtk7sAHm74f+sWjczDDa9UuZeDs6HzNINvtF4Q+oSOOqlskfsBnQkdllJ
UVcmt4aygTB6thYBbwClfRE8ZRyEphKlTzY6etRDb+ev+l5QOof2uLCzNAIYK8zt
RWAC8t3TQzKsEpaQWuyf/LsxoXsE36Ul0Kg5sWqsQakkdxIpEj7q0PYBmWzNbd/t
zfmYF6fn+XpZ36KAaSNrC/Xxsk8nSD9nbWqQv3KgpL2u4Jc8VmsYWPC+xXcuY+wT
4lVTh8gowyvJPxiWxgJMurTHrJ0vRQnHF9czPRNvX+/TxL8PBgwWL/axkM+UFMag
lZv8Nkn36que857VObeAkMdWfDSTbwQRAze1PYWxht9sQbSIS84ysQrM9LzcardJ
6+bswBUfim/ZnObhhXjphIA3kgP/OIbWPGE3m6PAp3snCysPp2a0DRk8uyQQcLJE
7+WcrcJAIfJHZcz/VCkh5ZEhz2FRxgWCKMFeoo/E46BXWIhT1VJdt/AkBMaEY6M=
-----END CERTIFICATE-----
