Certificate:
    Data:
        Version: 3 (0x2)
        Serial Number: 2 (0x2)
        Signature Algorithm: sha1WithRSAEncryption
        Issuer: C=BA, ST=RS, O=Elektrotehnicki fakultet, OU=ETF, CN=CA2/emailAddress=ca2@mail.com
        Validity
            Not Before: Feb 15 15:49:32 2022 GMT
            Not After : Feb 15 15:49:32 2023 GMT
        Subject: C=BA, ST=RS, O=Elektrotehnicki fakultet, OU=ETF, CN=Jelisaveta Novakovic/emailAddress=jelisavetanov@gmail.com
        Subject Public Key Info:
            Public Key Algorithm: rsaEncryption
                Public-Key: (2048 bit)
                Modulus:
                    00:b3:0f:7a:58:c3:e9:cb:b8:87:d0:af:bb:99:78:
                    25:bd:71:45:48:ee:23:85:f2:49:f5:d8:16:bf:23:
                    dc:ad:0e:b7:51:d3:da:27:22:f0:41:1f:77:69:25:
                    d6:ab:c4:64:96:2c:01:53:83:ef:fc:2f:e4:4d:f0:
                    6e:f2:29:44:03:5d:89:e7:93:0a:de:cb:99:72:6c:
                    dc:d3:2a:1d:cb:d4:2c:ab:b5:3f:37:36:cf:12:f2:
                    b3:33:99:0d:ac:d8:06:6c:c7:e8:a4:e9:0a:99:a2:
                    ac:e3:70:3d:3c:e3:45:2e:04:9b:79:11:fa:56:7f:
                    ac:39:7b:b2:ca:3d:12:35:42:37:b3:d5:fc:bb:78:
                    cc:49:11:15:9b:8d:99:88:c9:e1:46:0c:67:0c:3b:
                    9b:18:07:76:00:71:df:6d:52:53:33:8c:c9:d9:b4:
                    e5:ae:30:71:df:0b:17:bb:ba:9a:4e:67:ce:0a:d9:
                    31:22:86:41:38:ca:30:4f:fe:ac:c6:8a:db:c7:73:
                    14:1f:53:3b:53:b8:4d:b0:bf:ae:07:5f:c5:55:d7:
                    4e:1c:7f:2b:35:24:0a:c6:de:6d:da:7a:a8:c2:ca:
                    93:7f:f6:5d:ae:07:83:9e:41:f7:5a:54:6b:6e:5d:
                    ed:10:46:c7:e3:94:48:03:8d:db:99:3b:15:eb:cb:
                    48:01
                Exponent: 65537 (0x10001)
        X509v3 extensions:
            X509v3 Basic Constraints: 
                CA:FALSE
            X509v3 Key Usage: 
                Digital Signature, Non Repudiation, Key Encipherment
            X509v3 Extended Key Usage: 
                TLS Web Client Authentication
            Netscape Comment: 
                OpenSSL Generated Certificate
            X509v3 Subject Key Identifier: 
                B0:04:94:42:35:2A:07:65:BB:C8:DA:43:BC:E5:DE:27:A2:5D:7D:56
            X509v3 Authority Key Identifier: 
                0D:55:C8:B7:C8:68:E2:23:5E:FE:64:22:6D:80:20:AB:56:31:10:EA
            X509v3 CRL Distribution Points: 
                Full Name:
                  URI:http://192.168.21.89/rootcrl.pem
    Signature Algorithm: sha1WithRSAEncryption
    Signature Value:
        93:a9:ae:4f:36:a5:d4:d0:25:66:38:5b:ce:18:47:d4:08:a7:
        25:bc:98:e9:f3:4d:34:98:92:96:26:4e:6e:4e:36:b0:e7:47:
        93:ef:9d:2d:d6:77:2d:16:a1:da:ea:30:cc:d6:05:1b:23:11:
        47:4c:c0:3c:58:fa:3f:51:74:c5:19:a0:34:8d:6b:e1:68:19:
        a3:0d:d3:48:a1:0f:38:9f:60:d0:c3:f0:de:4d:8f:eb:b5:71:
        36:98:75:23:8f:33:25:f2:15:40:0c:a4:62:77:58:d5:72:76:
        d7:37:d4:d2:94:16:b9:b9:7e:70:40:9f:6e:0c:40:78:89:96:
        0c:02:c4:8b:e9:63:b9:36:cb:eb:ea:47:ca:89:64:f5:c8:1e:
        42:01:83:58:3d:cd:c3:ce:91:48:a8:16:d0:02:48:5a:1e:43:
        cc:61:bc:13:0c:20:b3:3f:7c:68:b5:17:1d:c0:cb:85:6c:4e:
        b0:f8:55:39:1d:f2:e7:76:cf:ae:85:62:b0:ec:d6:c9:b8:bc:
        55:6b:e2:e0:f1:02:93:17:ec:d1:f7:c9:95:ca:b6:31:c6:3e:
        be:a8:8c:c0:93:11:31:5b:2f:bb:56:f5:67:50:eb:56:46:da:
        0c:6d:98:ac:24:6e:36:34:52:95:75:0b:8e:92:c1:7c:3b:09:
        40:6c:39:58:4d:4a:dc:79:da:7a:7e:52:c3:b4:10:80:6e:7c:
        b1:aa:88:3c:8b:00:d5:38:35:78:2b:c7:8a:2f:55:a5:21:32:
        10:f2:c8:ca:3f:d6:77:e4:55:d4:54:e5:be:f4:4c:8d:dd:20:
        aa:b6:ab:35:94:3b:a6:44:b9:30:04:7d:0f:4f:ad:4c:4c:b9:
        48:7c:3d:25:0f:ee:c2:93:3a:30:5d:56:9e:81:22:84:07:3b:
        ac:62:df:c1:a9:b2:03:a2:aa:e7:0c:aa:dd:19:57:32:8f:97:
        7b:aa:00:63:47:3b:53:57:3c:10:34:29:2c:f2:eb:0e:fc:23:
        0a:42:2a:a7:6b:d1:15:7f:37:63:37:31:64:60:61:8e:f3:76:
        ab:8c:ec:7c:e6:4f:c5:f1:f7:f6:b4:77:9e:a3:29:1d:ba:8f:
        18:45:d0:53:83:db:03:8c:a4:fe:45:a9:f9:d8:b3:61:ff:c1:
        e3:25:84:98:5a:8e:8b:2f:73:2a:e6:ce:bc:50:f8:6d:ef:08:
        ca:01:48:31:ad:85:89:8c:1f:46:fa:dc:71:8b:dc:9e:d1:38:
        d0:7d:8a:17:4a:d8:12:c3:2d:b2:bf:e0:01:3c:ae:b2:3a:b0:
        f0:0e:0e:dc:37:7b:48:18:6a:58:24:f7:cd:fd:c8:5d:9b:d3:
        35:92:80:bb:f3:4c:f8:af
-----BEGIN CERTIFICATE-----
MIIFVjCCAz6gAwIBAgIBAjANBgkqhkiG9w0BAQUFADB2MQswCQYDVQQGEwJCQTEL
MAkGA1UECBMCUlMxITAfBgNVBAoTGEVsZWt0cm90ZWhuaWNraSBmYWt1bHRldDEM
MAoGA1UECxMDRVRGMQwwCgYDVQQDEwNDQTIxGzAZBgkqhkiG9w0BCQEWDGNhMkBt
YWlsLmNvbTAeFw0yMjAyMTUxNTQ5MzJaFw0yMzAyMTUxNTQ5MzJaMIGSMQswCQYD
VQQGEwJCQTELMAkGA1UECBMCUlMxITAfBgNVBAoTGEVsZWt0cm90ZWhuaWNraSBm
YWt1bHRldDEMMAoGA1UECxMDRVRGMR0wGwYDVQQDExRKZWxpc2F2ZXRhIE5vdmFr
b3ZpYzEmMCQGCSqGSIb3DQEJARYXamVsaXNhdmV0YW5vdkBnbWFpbC5jb20wggEi
MA0GCSqGSIb3DQEBAQUAA4IBDwAwggEKAoIBAQCzD3pYw+nLuIfQr7uZeCW9cUVI
7iOF8kn12Ba/I9ytDrdR09onIvBBH3dpJdarxGSWLAFTg+/8L+RN8G7yKUQDXYnn
kwrey5lybNzTKh3L1CyrtT83Ns8S8rMzmQ2s2AZsx+ik6QqZoqzjcD0840UuBJt5
EfpWf6w5e7LKPRI1Qjez1fy7eMxJERWbjZmIyeFGDGcMO5sYB3YAcd9tUlMzjMnZ
tOWuMHHfCxe7uppOZ84K2TEihkE4yjBP/qzGitvHcxQfUztTuE2wv64HX8VV104c
fys1JArG3m3aeqjCypN/9l2uB4OeQfdaVGtuXe0QRsfjlEgDjduZOxXry0gBAgMB
AAGjgdEwgc4wCQYDVR0TBAIwADALBgNVHQ8EBAMCBeAwEwYDVR0lBAwwCgYIKwYB
BQUHAwIwLAYJYIZIAYb4QgENBB8WHU9wZW5TU0wgR2VuZXJhdGVkIENlcnRpZmlj
YXRlMB0GA1UdDgQWBBSwBJRCNSoHZbvI2kO85d4nol19VjAfBgNVHSMEGDAWgBQN
Vci3yGjiI17+ZCJtgCCrVjEQ6jAxBgNVHR8EKjAoMCagJKAihiBodHRwOi8vMTky
LjE2OC4yMS44OS9yb290Y3JsLnBlbTANBgkqhkiG9w0BAQUFAAOCAgEAk6muTzal
1NAlZjhbzhhH1AinJbyY6fNNNJiSliZObk42sOdHk++dLdZ3LRah2uowzNYFGyMR
R0zAPFj6P1F0xRmgNI1r4WgZow3TSKEPOJ9g0MPw3k2P67VxNph1I48zJfIVQAyk
YndY1XJ21zfU0pQWubl+cECfbgxAeImWDALEi+ljuTbL6+pHyolk9cgeQgGDWD3N
w86RSKgW0AJIWh5DzGG8Ewwgsz98aLUXHcDLhWxOsPhVOR3y53bProVisOzWybi8
VWvi4PECkxfs0ffJlcq2McY+vqiMwJMRMVsvu1b1Z1DrVkbaDG2YrCRuNjRSlXUL
jpLBfDsJQGw5WE1K3Hnaen5Sw7QQgG58saqIPIsA1Tg1eCvHii9VpSEyEPLIyj/W
d+RV1FTlvvRMjd0gqrarNZQ7pkS5MAR9D0+tTEy5SHw9JQ/uwpM6MF1WnoEihAc7
rGLfwamyA6Kq5wyq3RlXMo+Xe6oAY0c7U1c8EDQpLPLrDvwjCkIqp2vRFX83Yzcx
ZGBhjvN2q4zsfOZPxfH39rR3nqMpHbqPGEXQU4PbA4yk/kWp+dizYf/B4yWEmFqO
iy9zKubOvFD4be8IygFIMa2FiYwfRvrccYvcntE40H2KF0rYEsMtsr/gATyusjqw
8A4O3Dd7SBhqWCT3zf3IXZvTNZKAu/NM+K8=
-----END CERTIFICATE-----
