Certificate:
    Data:
        Version: 3 (0x2)
        Serial Number: 2 (0x2)
        Signature Algorithm: sha1WithRSAEncryption
        Issuer: C=BA, ST=RS, L=Banja Luka, O=Elektrotehnicki fakultet, OU=ETF, CN=rootCA/emailAddress=rootca@mail.com
        Validity
            Not Before: Jan 30 10:43:29 2022 GMT
            Not After : Jan 30 10:43:29 2023 GMT
        Subject: C=BA, ST=RS, O=Elektrotehnicki fakultet, OU=ETF, CN=CA2/emailAddress=ca2@mail.com
        Subject Public Key Info:
            Public Key Algorithm: rsaEncryption
                RSA Public-Key: (4096 bit)
                Modulus:
                    00:b2:77:d6:c6:e1:d1:3c:15:6d:96:39:dc:41:b1:
                    4e:85:c4:d4:fc:66:89:d5:3d:46:43:f0:0e:45:27:
                    1f:af:c5:81:06:6b:82:93:fd:2e:79:dc:27:60:a6:
                    24:33:95:82:49:61:5c:39:c2:b8:ac:80:cb:e1:d8:
                    e2:0b:e8:78:8b:25:2e:17:80:ea:73:43:a8:99:92:
                    3a:00:fc:d4:39:48:c4:ca:dd:e5:0f:d7:dc:5c:b4:
                    b7:56:a5:d5:bd:54:a2:ae:e3:6f:d2:24:82:c2:1c:
                    f1:bc:e8:d4:f1:8f:5a:ef:05:fb:de:98:c0:56:47:
                    87:51:b5:c8:6a:ca:a9:ab:3b:eb:e5:f0:2d:84:87:
                    65:22:f1:59:36:7a:4d:fd:86:ba:c8:e4:12:a1:7e:
                    15:9a:d7:1e:ae:92:f6:aa:bc:5c:00:87:aa:4c:5b:
                    cf:15:df:4d:05:dd:56:f0:79:7e:53:9b:e1:5d:2c:
                    8e:25:c1:db:86:08:b8:1c:fb:c9:4e:bf:5f:8e:9d:
                    d7:d0:5e:1c:79:f8:3e:6c:6d:fb:3b:ca:bf:ec:ab:
                    27:3e:f3:d3:82:94:64:a0:30:3d:57:cf:d3:2e:6a:
                    11:05:39:1e:06:2c:ed:81:81:0b:b0:dd:df:68:cb:
                    98:06:34:d2:24:03:42:db:0b:82:6b:f6:86:37:c2:
                    f1:c1:9a:5e:73:64:27:65:8b:1f:fd:31:8c:fc:67:
                    0b:35:0a:c7:1d:0a:81:5b:bd:25:5f:44:ee:d0:01:
                    c5:4a:8d:08:38:d3:a8:b5:5a:bf:6b:cc:58:5b:71:
                    9f:18:4b:4b:5e:48:52:a2:b7:16:a9:cf:df:0b:b6:
                    a4:d4:d7:db:0b:17:02:47:a5:7b:9c:4c:b1:56:c2:
                    22:b3:ac:cf:26:eb:09:eb:a4:63:8a:b4:33:56:2c:
                    e0:36:49:69:e7:e0:e6:70:32:36:20:28:ea:dc:7d:
                    b2:76:31:20:66:28:eb:d0:ab:17:8a:b5:4e:6f:ec:
                    49:ad:4c:50:03:4e:ba:1f:6b:02:ec:ec:6c:46:47:
                    d2:b5:6b:88:21:c8:bc:f3:9a:43:d6:b1:3e:6b:0f:
                    c9:d0:25:a2:f8:96:57:0d:7d:a0:26:39:06:94:0a:
                    53:dd:0d:d2:ed:de:39:48:e8:4c:fb:56:54:c6:11:
                    54:d3:5c:a6:c6:18:ef:3c:4f:24:34:ef:74:52:58:
                    d9:cf:66:b4:68:2c:5d:b5:2f:e0:21:6e:45:0c:6d:
                    83:f9:38:cd:ff:16:1b:52:41:f2:ca:c5:1d:3f:97:
                    f6:9a:1b:8e:6a:8b:1d:f4:b6:10:79:95:64:cf:a3:
                    1f:0e:94:5f:fc:41:67:32:d6:22:07:87:04:e7:61:
                    fa:22:cb
                Exponent: 65537 (0x10001)
        X509v3 extensions:
            X509v3 Basic Constraints: 
                CA:TRUE, pathlen:0
            X509v3 Key Usage: 
                Digital Signature, Certificate Sign, CRL Sign
            X509v3 Extended Key Usage: 
                TLS Web Client Authentication, TLS Web Server Authentication
            Netscape Comment: 
                OpenSSL Generated Certificate
            X509v3 Subject Key Identifier: 
                0D:55:C8:B7:C8:68:E2:23:5E:FE:64:22:6D:80:20:AB:56:31:10:EA
            X509v3 Authority Key Identifier: 
                keyid:03:07:08:27:32:81:8F:23:66:DA:37:7D:88:F5:CD:C1:37:64:50:60

            X509v3 CRL Distribution Points: 

                Full Name:
                  URI:http://192.168.21.89/rootcrl.pem

    Signature Algorithm: sha1WithRSAEncryption
         53:f8:7a:43:2b:ed:67:c1:fa:e5:04:85:6c:dc:1f:60:2c:e2:
         56:94:ed:1c:ce:02:a9:e0:7d:8b:20:30:80:73:63:7f:7d:85:
         14:01:b5:22:d5:2b:f9:56:92:15:fa:d1:45:a7:b2:94:42:12:
         b8:d8:71:e0:20:c3:ea:c8:47:aa:67:65:fc:f4:d2:b4:f3:c8:
         7f:13:69:41:28:ff:8e:f0:b7:f8:63:c2:ba:73:62:28:5b:ac:
         8a:44:3f:d2:77:dc:c8:94:61:5a:96:54:2a:2f:b5:e6:5a:e0:
         9a:a9:a2:81:b3:04:75:8d:5d:a2:7d:a9:6a:12:38:2e:a8:d6:
         c8:ac:c6:5c:26:af:a7:7d:4f:75:a9:73:41:e4:1b:f8:fd:d4:
         f3:7f:81:30:ed:fb:f1:f6:f3:a2:78:3b:2f:60:e3:5b:76:1b:
         75:88:f5:40:89:71:d7:cf:96:76:fd:71:b6:8d:58:5e:91:24:
         92:31:a4:45:da:da:ae:ad:7c:f1:79:b7:89:1b:62:4d:16:05:
         3b:ef:45:06:04:b5:19:75:11:d7:48:21:63:b8:1d:08:eb:95:
         c3:24:9e:2c:84:12:f3:ca:0b:b8:ae:ec:a8:e2:81:28:f3:37:
         a9:3b:6c:3b:bc:f7:20:69:ab:e9:e1:4c:7a:77:52:4a:40:25:
         57:40:0a:51:56:20:7d:f6:0d:52:de:86:0b:4f:50:47:d9:b3:
         5d:5b:34:a1:e3:ca:dc:28:81:a6:d8:8a:ab:c0:8b:c2:2f:cb:
         d8:25:a0:f6:1f:17:45:8b:3b:52:af:5e:c5:2a:33:df:47:16:
         6e:7a:93:66:f3:be:4b:50:b4:b4:73:04:b8:d5:b0:87:c1:1c:
         49:23:64:14:bc:57:8a:25:92:aa:ef:a6:94:06:7a:39:70:c4:
         53:f2:f0:dd:62:17:17:5a:bc:ee:aa:a8:b6:e4:f7:1f:3d:8f:
         a0:6c:dc:95:86:c3:fd:f3:8c:b7:da:70:50:bd:7c:b9:5a:ee:
         eb:40:61:9e:6b:74:06:ed:d4:fc:9c:4e:b1:dc:8b:3e:be:82:
         31:9f:f5:cd:eb:f6:76:c9:5a:ff:b6:89:08:8c:ff:c2:c1:cb:
         f0:e4:79:a2:bf:b3:c8:99:fb:77:0c:f9:9b:c3:b9:89:7e:97:
         29:ff:b8:43:3a:e9:77:4e:91:c9:22:f9:10:1b:e5:e0:15:16:
         14:07:3f:6f:98:e6:d7:e3:f9:35:a1:2d:b5:ba:ec:98:5d:01:
         3f:ec:4b:07:24:5f:3e:e0:e2:0d:55:f7:d6:bb:6f:72:b3:63:
         6b:5d:fd:32:1e:e7:a1:9c:50:28:c7:cf:51:c8:b5:48:16:2a:
         2f:3b:29:62:ab:0e:d2:9e
-----BEGIN CERTIFICATE-----
MIIGZTCCBE2gAwIBAgIBAjANBgkqhkiG9w0BAQUFADCBkTELMAkGA1UEBhMCQkEx
CzAJBgNVBAgTAlJTMRMwEQYDVQQHEwpCYW5qYSBMdWthMSEwHwYDVQQKExhFbGVr
dHJvdGVobmlja2kgZmFrdWx0ZXQxDDAKBgNVBAsTA0VURjEPMA0GA1UEAxMGcm9v
dENBMR4wHAYJKoZIhvcNAQkBFg9yb290Y2FAbWFpbC5jb20wHhcNMjIwMTMwMTA0
MzI5WhcNMjMwMTMwMTA0MzI5WjB2MQswCQYDVQQGEwJCQTELMAkGA1UECBMCUlMx
ITAfBgNVBAoTGEVsZWt0cm90ZWhuaWNraSBmYWt1bHRldDEMMAoGA1UECxMDRVRG
MQwwCgYDVQQDEwNDQTIxGzAZBgkqhkiG9w0BCQEWDGNhMkBtYWlsLmNvbTCCAiIw
DQYJKoZIhvcNAQEBBQADggIPADCCAgoCggIBALJ31sbh0TwVbZY53EGxToXE1Pxm
idU9RkPwDkUnH6/FgQZrgpP9LnncJ2CmJDOVgklhXDnCuKyAy+HY4gvoeIslLheA
6nNDqJmSOgD81DlIxMrd5Q/X3Fy0t1al1b1Uoq7jb9IkgsIc8bzo1PGPWu8F+96Y
wFZHh1G1yGrKqas76+XwLYSHZSLxWTZ6Tf2GusjkEqF+FZrXHq6S9qq8XACHqkxb
zxXfTQXdVvB5flOb4V0sjiXB24YIuBz7yU6/X46d19BeHHn4Pmxt+zvKv+yrJz7z
04KUZKAwPVfP0y5qEQU5HgYs7YGBC7Dd32jLmAY00iQDQtsLgmv2hjfC8cGaXnNk
J2WLH/0xjPxnCzUKxx0KgVu9JV9E7tABxUqNCDjTqLVav2vMWFtxnxhLS15IUqK3
FqnP3wu2pNTX2wsXAkele5xMsVbCIrOszybrCeukY4q0M1Ys4DZJaefg5nAyNiAo
6tx9snYxIGYo69CrF4q1Tm/sSa1MUANOuh9rAuzsbEZH0rVriCHIvPOaQ9axPmsP
ydAloviWVw19oCY5BpQKU90N0u3eOUjoTPtWVMYRVNNcpsYY7zxPJDTvdFJY2c9m
tGgsXbUv4CFuRQxtg/k4zf8WG1JB8srFHT+X9pobjmqLHfS2EHmVZM+jHw6UX/xB
ZzLWIgeHBOdh+iLLAgMBAAGjgeEwgd4wDwYDVR0TBAgwBgEB/wIBADALBgNVHQ8E
BAMCAYYwHQYDVR0lBBYwFAYIKwYBBQUHAwIGCCsGAQUFBwMBMCwGCWCGSAGG+EIB
DQQfFh1PcGVuU1NMIEdlbmVyYXRlZCBDZXJ0aWZpY2F0ZTAdBgNVHQ4EFgQUDVXI
t8ho4iNe/mQibYAgq1YxEOowHwYDVR0jBBgwFoAUAwcIJzKBjyNm2jd9iPXNwTdk
UGAwMQYDVR0fBCowKDAmoCSgIoYgaHR0cDovLzE5Mi4xNjguMjEuODkvcm9vdGNy
bC5wZW0wDQYJKoZIhvcNAQEFBQADggIBAFP4ekMr7WfB+uUEhWzcH2As4laU7RzO
AqngfYsgMIBzY399hRQBtSLVK/lWkhX60UWnspRCErjYceAgw+rIR6pnZfz00rTz
yH8TaUEo/47wt/hjwrpzYihbrIpEP9J33MiUYVqWVCovteZa4JqpooGzBHWNXaJ9
qWoSOC6o1sisxlwmr6d9T3Wpc0HkG/j91PN/gTDt+/H286J4Oy9g41t2G3WI9UCJ
cdfPlnb9cbaNWF6RJJIxpEXa2q6tfPF5t4kbYk0WBTvvRQYEtRl1EddIIWO4HQjr
lcMkniyEEvPKC7iu7KjigSjzN6k7bDu89yBpq+nhTHp3UkpAJVdAClFWIH32DVLe
hgtPUEfZs11bNKHjytwogabYiqvAi8Ivy9gloPYfF0WLO1KvXsUqM99HFm56k2bz
vktQtLRzBLjVsIfBHEkjZBS8V4olkqrvppQGejlwxFPy8N1iFxdavO6qqLbk9x89
j6Bs3JWGw/3zjLfacFC9fLla7utAYZ5rdAbt1PycTrHciz6+gjGf9c3r9nbJWv+2
iQiM/8LBy/DkeaK/s8iZ+3cM+ZvDuYl+lyn/uEM66XdOkcki+RAb5eAVFhQHP2+Y
5tfj+TWhLbW67JhdAT/sSwckXz7g4g1V99a7b3KzY2td/TIe56GcUCjHz1HItUgW
Ki87KWKrDtKe
-----END CERTIFICATE-----
